(dp0
S'hanging'
p1
I51
sS'looking'
p2
I149
sS'kids'
p3
I159
sS'music'
p4
I101
sS'want'
p5
I322
sS'wrong'
p6
I31
sS'season'
p7
I37
sS'xd'
p8
I30
sS'needed'
p9
I43
sS'shower'
p10
I49
sS'feeling'
p11
I185
sS'spent'
p12
I55
sS'camp'
p13
I30
sS'came'
p14
I65
sS'lots'
p15
I63
sS'.'
p16
I7359
sS'much'
p17
I419
sS'worked'
p18
I31
sS'excited'
p19
I255
sS'had'
p20
I822
sS'has'
p21
I420
sS'soo'
p22
I185
sS'thankful'
p23
I33
sS'inside'
p24
I32
sS"'t"
p25
I31
sS"'s"
p26
I80
sS'leave'
p27
I81
sS'sigh'
p28
I35
sS'working'
p29
I95
sS'three'
p30
I51
sS'awesome'
p31
I326
sS'their'
p32
I94
sS'so'
p33
I1572
sS'years'
p34
I85
sS'\\'
p35
I264
sS'seriously'
p36
I30
sS'one'
p37
I518
sS'open'
p38
I33
sS'city'
p39
I34
sS'propfirst'
p40
I890
sS'amaya'
p41
I30
sS'drive'
p42
I48
sS'many'
p43
I113
sS"can't"
p44
I440
sS'wants'
p45
I96
sS'being'
p46
I211
sS'rest'
p47
I63
sS'around'
p48
I129
sS'world'
p49
I170
sS"couldn't"
p50
I31
sS'her'
p51
I425
sS'hey'
p52
I68
sS'with'
p53
I1853
sS'watched'
p54
I48
sS'cream'
p55
I38
sS'to'
p56
I4735
sS'past'
p57
I33
sS'full'
p58
I55
sS'6'
p59
I63
sS'more'
p60
I414
sS'paper'
p61
I51
sS'wrk'
p62
I30
sS'found'
p63
I115
sS'guess'
p64
I139
sS'rain'
p65
I79
sS'also'
p66
I89
sS'sometimes'
p67
I37
sS'ugh'
p68
I84
sS'cry'
p69
I31
sS'project'
p70
I34
sS'last'
p71
I355
sS'church'
p72
I85
sS'gonna'
p73
I333
sS'couple'
p74
I51
sS'into'
p75
I147
sS'up'
p76
I813
sS'us'
p77
I97
sS'ur'
p78
I62
sS'having'
p79
I199
sS'try'
p80
I66
sS'makes'
p81
I138
sS'next'
p82
I222
sS'baby'
p83
I196
sS'realized'
p84
I37
sS'perfect'
p85
I71
sS'2011'
p86
I31
sS'2010'
p87
I32
sS'due'
p88
I35
sS"'"
p89
I254
sS'could'
p90
I179
sS'start'
p91
I159
sS'tonight'
p92
I464
sS'thanksgiving'
p93
I65
sS'face'
p94
I83
sS'bring'
p95
I45
sS'should'
p96
I190
sS'means'
p97
I45
sS'stuff'
p98
I118
sS'>'
p99
I2446
sS'hahaha'
p100
I46
sS'off'
p101
I474
sS'leaving'
p102
I60
sS'worth'
p103
I58
sS'officially'
p104
I50
sS'interview'
p105
I34
sS'beach'
p106
I63
sS'after'
p107
I208
sS'appreciate'
p108
I31
sS'coffee'
p109
I60
sS'band'
p110
I37
sS'another'
p111
I152
sS'loved'
p112
I56
sS'away'
p113
I102
sS'we'
p114
I456
sS'thanks'
p115
I250
sS'night'
p116
I606
sS'way'
p117
I247
sS'was'
p118
I936
sS'true'
p119
I44
sS"let's"
p120
I40
sS'broke'
p121
I41
sS'guy'
p122
I48
sS'car'
p123
I111
sS'can'
p124
I498
sS"didn't"
p125
I91
sS'still'
p126
I330
sS'not'
p127
I726
sS'yeah'
p128
I71
sS'year'
p129
I193
sS'happen'
p130
I33
sS'care'
p131
I57
sS">'s"
p132
I127
sS'fb'
p133
I59
sS'tomorrow'
p134
I621
sS'forever'
p135
I40
sS'help'
p136
I109
sS'only'
p137
I293
sS'asleep'
p138
I31
sS'hurts'
p139
I63
sS'these'
p140
I81
sS'listening'
p141
I52
sS'lol'
p142
I468
sS'lot'
p143
I101
sS'poor'
p144
I42
sS'pool'
p145
I35
sS'month'
p146
I60
sS'ass'
p147
I45
sS'cookies'
p148
I37
sS'family'
p149
I235
sS'ask'
p150
I46
sS'almost'
p151
I115
sS'dream'
p152
I35
sS'soon'
p153
I127
sS'hell'
p154
I50
sS'talking'
p155
I46
sS"haven't"
p156
I45
sS'evening'
p157
I38
sS'ya'
p158
I60
sS'7'
p159
I52
sS'feels'
p160
I92
sS'close'
p161
I43
sS'pictures'
p162
I47
sS'missing'
p163
I61
sS"wouldn't"
p164
I30
sS'damn'
p165
I70
sS'look'
p166
I96
sS'ready'
p167
I228
sS'game'
p168
I157
sS'semester'
p169
I31
sS'win'
p170
I32
sS'wit'
p171
I30
sS'crap'
p172
I47
sS'started'
p173
I72
sS':-('
p174
I185
sS'wonderful'
p175
I146
sS'special'
p176
I44
sS'cause'
p177
I80
sS'times'
p178
I98
sS"you're"
p179
I110
sS'('
p180
I317
sS'wish'
p181
I201
sS'tuesday'
p182
I30
sS'yay'
p183
I267
sS"doesn't"
p184
I78
sS'party'
p185
I141
sS'well'
p186
I429
sS'lost'
p187
I118
sS'home'
p188
I524
sS'?'
p189
I617
sS'eat'
p190
I80
sS'stay'
p191
I67
sS'friends'
p192
I324
sS'sorry'
p193
I52
sS'hate'
p194
I146
sS'met'
p195
I38
sS'warm'
p196
I37
sS'room'
p197
I96
sS'movies'
p198
I60
sS'amazing'
p199
I277
sS'before'
p200
I140
sS'weeks'
p201
I79
sS'mean'
p202
I52
sS'forgot'
p203
I31
sS'enjoy'
p204
I55
sS'gym'
p205
I56
sS'mind'
p206
I79
sS'seen'
p207
I45
sS'dog'
p208
I35
sS'omg'
p209
I49
sS'lovely'
p210
I42
sS'cant'
p211
I191
sS'yes'
p212
I75
sS'yet'
p213
I73
sS'dead'
p214
I32
sS'dear'
p215
I36
sS'afternoon'
p216
I32
sS'down'
p217
I174
sS'weekend'
p218
I322
sS'me'
p219
I1481
sS'mm'
p220
I43
sS'eating'
p221
I73
sS'boy'
p222
I52
sS'boo'
p223
I35
sS'making'
p224
I124
sS'fuck'
p225
I30
sS'may'
p226
I74
sS'talk'
p227
I100
sS'interesting'
p228
I42
sS'lunch'
p229
I67
sS'own'
p230
I57
sS'rock'
p231
I54
sS'thing'
p232
I145
sS'little'
p233
I288
sS'anyone'
p234
I150
sS'eyes'
p235
I35
sS'11'
p236
I38
sS'10'
p237
I65
sS'12'
p238
I42
sS'15'
p239
I31
sS'place'
p240
I71
sS'show'
p241
I80
sS'get'
p242
I814
sS'morning'
p243
I256
sS'wonder'
p244
I34
sS'enough'
p245
I65
sS'writing'
p246
I39
sS'wake'
p247
I47
sS'sleeping'
p248
I41
sS'money'
p249
I50
sS'blessed'
p250
I36
sS'again'
p251
I290
sS'saturday'
p252
I75
sS'u'
p253
I176
sS'alright'
p254
I31
sS'enjoying'
p255
I46
sS'sitting'
p256
I51
sS'two'
p257
I159
sS'hour'
p258
I68
sS'sucks'
p259
I59
sS'needs'
p260
I60
sS'coming'
p261
I108
sS'facebook'
p262
I118
sS"that's"
p263
I80
sS'already'
p264
I104
sS'through'
p265
I83
sS'hard'
p266
I69
sS'dont'
p267
I150
sS'done'
p268
I258
sS'least'
p269
I89
sS'park'
p270
I42
sS'part'
p271
I50
sS'believe'
p272
I66
sS'most'
p273
I128
sS'8'
p274
I40
sS'cut'
p275
I44
sS'cuz'
p276
I72
sS'boys'
p277
I35
sS'meet'
p278
I58
sS'30'
p279
I45
sS'didnt'
p280
I52
sS'wedding'
p281
I31
sS'have'
p282
I1207
sS'apparently'
p283
I30
sS'taking'
p284
I81
sS'news'
p285
I38
sS"it's"
p286
I462
sS'finished'
p287
I87
sS')'
p288
I397
sS'like'
p289
I762
sS'hair'
p290
I118
sS'about'
p291
I427
sS':-)'
p292
I373
sS'goin'
p293
I96
sS'under'
p294
I36
sS'@'
p295
I64
sS'school'
p296
I420
sS'n'
p297
I128
sS'would'
p298
I220
sS'nite'
p299
I41
sS'days'
p300
I326
sS'top'
p301
I31
sS'too'
p302
I288
sS'final'
p303
I35
sS'snow'
p304
I96
sS'though'
p305
I122
sS'watch'
p306
I115
sS'hopefully'
p307
I97
sS'games'
p308
I36
sS'gave'
p309
I33
sS'everything'
p310
I101
sS'dinner'
p311
I116
sS'ahh'
p312
I84
sS'when'
p313
I381
sS'picture'
p314
I34
sS'football'
p315
I30
sS':)"'
p316
I99
sS':).'
p317
I49
sS'cool'
p318
I68
sS'goes'
p319
I52
sS'today'
p320
I1111
sS'1'
p321
I71
sS'ppl'
p322
I46
sS'name'
p323
I51
sS'did'
p324
I171
sS'turn'
p325
I35
sS'copy'
p326
I39
sS'later'
p327
I93
sS'college'
p328
I45
sS'outside'
p329
I68
sS'myself'
p330
I109
sS'trip'
p331
I44
sS'week'
p332
I280
sS'without'
p333
I82
sS'seems'
p334
I43
sS'lets'
p335
I40
sS'always'
p336
I181
sS'mood'
p337
I51
sS'longer'
p338
I33
sS'missed'
p339
I57
sS'all'
p340
I1104
sS'thursday'
p341
I36
sS'what'
p342
I519
sS'sun'
p343
I51
sS'knows'
p344
I60
sS'glad'
p345
I105
sS'bout'
p346
I56
sS'friday'
p347
I110
sS'feel'
p348
I323
sS'because'
p349
I160
sS'kind'
p350
I42
sS'nights'
p351
I36
sS'sweet'
p352
I75
sS'9'
p353
I35
sS'phone'
p354
I149
sS'wanna'
p355
I173
sS'long'
p356
I203
sS'peace'
p357
I32
sS'nice'
p358
I158
sS'helping'
p359
I31
sS'instead'
p360
I35
sS'our'
p361
I177
sS'out'
p362
I821
sS'ipod'
p363
I31
sS'which'
p364
I71
sS'who'
p365
I333
sS'class'
p366
I190
sS'ha'
p367
I38
sS'job'
p368
I118
sS'walk'
p369
I45
sS'~'
p370
I34
sS'gets'
p371
I70
sS'*'
p372
I103
sS'kinda'
p373
I59
sS'lord'
p374
I35
sS'tired'
p375
I156
sS'second'
p376
I54
sS'here'
p377
I252
sS"i'd"
p378
I30
sS"i'm"
p379
I900
sS'txt'
p380
I133
sS'hoping'
p381
I34
sS'until'
p382
I128
sS'relax'
p383
I34
sS'hurt'
p384
I47
sS'how'
p385
I338
sS'hot'
p386
I78
sS'heading'
p387
I39
sS'person'
p388
I83
sS'even'
p389
I235
sS'busy'
p390
I56
sS'fair'
p391
I32
sS'goodnight'
p392
I56
sS'best'
p393
I264
sS'side'
p394
I44
sS'and'
p395
I3791
sS'parents'
p396
I37
sS'life'
p397
I416
sS'chill'
p398
I40
sS'things'
p399
I187
sS'thinking'
p400
I65
sS'easy'
p401
I32
sS'right'
p402
I276
sS'old'
p403
I140
sS'people'
p404
I306
sS'sure'
p405
I72
sS'for'
p406
I2319
sS'spring'
p407
I55
sS'happy'
p408
I628
sS'time'
p409
I766
sS':/'
p410
I42
sS':('
p411
I2734
sS':)'
p412
I8488
sS':d'
p413
I202
sS':p'
p414
I55
sS'team'
p415
I38
sS'alone'
p416
I41
sS'love'
p417
I904
sS'loving'
p418
I46
sS'laundry'
p419
I34
sS'date'
p420
I51
sS'such'
p421
I129
sS'course'
p422
I30
sS'quite'
p423
I49
sS'spending'
p424
I44
sS'potter'
p425
I30
sS'2'
p426
I259
sS'boyfriend'
p427
I36
sS'sad'
p428
I135
sS'say'
p429
I186
sS'saw'
p430
I81
sS'take'
p431
I169
sS'knew'
p432
I30
sS'going'
p433
I860
sS'where'
p434
I90
sS','
p435
I3198
sS'summer'
p436
I73
sS'thinks'
p437
I36
sS';)'
p438
I60
sS'favorite'
p439
I90
sS'gone'
p440
I63
sS'am'
p441
I464
sS'an'
p442
I508
sS'as'
p443
I265
sS'at'
p444
I1207
sS'smile'
p445
I80
sS'hours'
p446
I166
sS'pics'
p447
I46
sS'mall'
p448
I38
sS'beautiful'
p449
I127
sS'its'
p450
I455
sS'really'
p451
I465
sS'number'
p452
I45
sS'play'
p453
I111
sS'set'
p454
I43
sS'see'
p455
I498
sS'movie'
p456
I136
sS'whole'
p457
I85
sS'great'
p458
I476
sS'<3'
p459
I426
sS'funny'
p460
I69
sS'thats'
p461
I74
sS'be'
p462
I1236
sS'by'
p463
I288
sS'anything'
p464
I90
sS':'
p465
I496
sS'definitely'
p466
I30
sS'ago'
p467
I30
sS'hello'
p468
I44
sS'send'
p469
I34
sS'gettin'
p470
I75
sS'let'
p471
I136
sS'this'
p472
I1157
sS'oh'
p473
I253
sS'high'
p474
I68
sS'doing'
p475
I130
sS'there'
p476
I268
sS'decided'
p477
I46
sS'hope'
p478
I270
sS'move'
p479
I47
sS'lucky'
p480
I30
sS'=)'
p481
I1090
sS'less'
p482
I54
sS'does'
p483
I77
sS'sister'
p484
I66
sS'anymore'
p485
I56
sS'+'
p486
I38
sS'told'
p487
I34
sS'haha'
p488
I211
sS'word'
p489
I32
sS'work'
p490
I605
sS'bday'
p491
I38
sS'worst'
p492
I33
sS'then'
p493
I634
sS'them'
p494
I186
sS'break'
p495
I112
sS'they'
p496
I284
sS'>,'
p497
I147
sS'>.'
p498
I159
sS'>!'
p499
I91
sS'make'
p500
I319
sS'do'
p501
I575
sS'de'
p502
I31
sS'ill'
p503
I55
sS'relaxing'
p504
I30
sS'tho'
p505
I32
sS'the'
p506
I4366
sS'together'
p507
I46
sS'dance'
p508
I95
sS'blast'
p509
I41
sS'change'
p510
I62
sS'>:('
p511
I93
sS'live'
p512
I58
sS'write'
p513
I31
sS'use'
p514
I47
sS'remember'
p515
I36
sS'cold'
p516
I89
sS'=('
p517
I229
sS'half'
p518
I63
sS'wont'
p519
I45
sS'es'
p520
I36
sS'friend'
p521
I117
sS'that'
p522
I1114
sS'than'
p523
I165
sS'packing'
p524
I31
sS'breakfast'
p525
I40
sS'propmale'
p526
I857
sS'concert'
p527
I44
sS'3'
p528
I157
sS'comes'
p529
I54
sS'finish'
p530
I49
sS'real'
p531
I46
sS'read'
p532
I40
sS'early'
p533
I98
sS'your'
p534
I387
sS'trying'
p535
I77
sS'you'
p536
I1461
sS'very'
p537
I202
sS"i'll"
p538
I168
sS'hogy'
p539
I31
sS'"'
p540
I198
sS'a'
p541
I3878
sS'actually'
p542
I84
sS'food'
p543
I94
sS"isn't"
p544
I48
sS'since'
p545
I75
sS'put'
p546
I105
sS'miss'
p547
I290
sS'lil'
p548
I68
sS'clean'
p549
I52
sS'pretty'
p550
I234
sS'wow'
p551
I124
sS'woo'
p552
I34
sS'won'
p553
I44
sS'probably'
p554
I41
sS'both'
p555
I43
sS'each'
p556
I32
sS'else'
p557
I61
sS'while'
p558
I132
sS'cleaning'
p559
I50
sS'$'
p560
I49
sS'some'
p561
I554
sS'propfemale'
p562
I1541
sS'everybody'
p563
I53
sS'run'
p564
I52
sS'seeing'
p565
I47
sS'visit'
p566
I41
sS'nothing'
p567
I101
sS'nap'
p568
I72
sS"she's"
p569
I44
sS'go'
p570
I728
sS'cell'
p571
I90
sS';'
p572
I113
sS'ride'
p573
I45
sS'halloween'
p574
I45
sS"won't"
p575
I67
sS'till'
p576
I103
sS'sunday'
p577
I80
sS'him'
p578
I162
sS'keep'
p579
I84
sS'man'
p580
I141
sS'bed'
p581
I241
sS'maybe'
p582
I89
sS'need'
p583
I287
sS'able'
p584
I52
sS'she'
p585
I234
sS'computer'
p586
I61
sS'state'
p587
I31
sS'horrible'
p588
I30
sS'single'
p589
I31
sS'i'
p590
I4757
sS'headin'
p591
I41
sS'monday'
p592
I70
sS'he'
p593
I256
sS'woke'
p594
I46
sS'living'
p595
I36
sS'nem'
p596
I33
sS'new'
p597
I480
sS'ever'
p598
I204
sS'never'
p599
I178
sS'call'
p600
I92
sS'tell'
p601
I72
sS'give'
p602
I83
sS'think'
p603
I336
sS'first'
p604
I257
sS'better'
p605
I320
sS'went'
p606
I201
sS'luck'
p607
I70
sS'starts'
p608
I38
sS'girls'
p609
I107
sS'matter'
p610
I31
sS'stop'
p611
I77
sS'bad'
p612
I206
sS'said'
p613
I71
sS"there's"
p614
I55
sS'is'
p615
I2607
sS'it'
p616
I1821
sS'im'
p617
I489
sS'in'
p618
I2050
sS'if'
p619
I538
sS'left'
p620
I85
sS'just'
p621
I1258
sS'super'
p622
I108
sS'shit'
p623
I43
sS'felt'
p624
I33
sS'yummy'
p625
I39
sS'finally'
p626
I252
sS'wait'
p627
I355
sS'crazy'
p628
I92
sS'guys'
p629
I133
sS'cute'
p630
I60
sS'thank'
p631
I272
sS'pizza'
p632
I40
sS'girl'
p633
I97
sS'gotta'
p634
I137
sS'were'
p635
I145
sS'pain'
p636
I40
sS'track'
p637
I33
sS'black'
p638
I34
sS'stupid'
p639
I78
sS'reading'
p640
I47
sS'shopping'
p641
I83
sS'those'
p642
I68
sS'pay'
p643
I31
sS'same'
p644
I72
sS'running'
p645
I42
sS'totally'
p646
I53
sS'mom'
p647
I132
sS'road'
p648
I32
sS"wasn't"
p649
I40
sS'once'
p650
I54
sS'starting'
p651
I58
sS'forget'
p652
I34
sS'fall'
p653
I54
sS'town'
p654
I36
sS'blood'
p655
I36
sS'wishes'
p656
I101
sS'late'
p657
I64
sS'someone'
p658
I147
sS'everyone'
p659
I414
sS'house'
p660
I224
sS'b'
p661
I44
sS'dancing'
p662
I32
sS'find'
p663
I97
sS'mine'
p664
I30
sS'please'
p665
I143
sS'alot'
p666
I34
sS'4'
p667
I114
sS'fun'
p668
I507
sS'yesterday'
p669
I101
sS'spend'
p670
I63
sS'big'
p671
I124
sS'bit'
p672
I87
sS'back'
p673
I547
sS'from'
p674
I608
sS'few'
p675
I147
sS'forward'
p676
I77
sS'bored'
p677
I110
sS'putting'
p678
I30
sS'<'
p679
I2788
sS'dad'
p680
I85
sS'day'
p681
I1402
sS'red'
p682
I42
sS'loves'
p683
I95
sS'okay'
p684
I51
sS'text'
p685
I110
sS'beat'
p686
I43
sS'laugh'
p687
I36
sS'thought'
p688
I76
sS'buy'
p689
I38
sS'but'
p690
I1100
sS'minutes'
p691
I31
sS'sleep'
p692
I222
sS'every'
p693
I95
sS'why'
p694
I147
sS'must'
p695
I84
sS'my'
p696
I3351
sS'end'
p697
I103
sS'over'
p698
I291
sS'driving'
p699
I39
sS'god'
p700
I157
sS'got'
p701
I867
sS'free'
p702
I67
sS'wanted'
p703
I45
sS'took'
p704
I76
sS'classes'
p705
I41
sS'-'
p706
I277
sS'been'
p707
I312
sS'ice'
p708
I69
sS'christmas'
p709
I160
sS'head'
p710
I77
sS'hear'
p711
I41
sS'check'
p712
I36
sS'no'
p713
I470
sS'til'
p714
I77
sS'brother'
p715
I57
sS'says'
p716
I34
sS'water'
p717
I46
sS'proud'
p718
I52
sS'1st'
p719
I32
sS'post'
p720
I55
sS'chocolate'
p721
I52
sS'months'
p722
I51
sS'watching'
p723
I197
sS'!'
p724
I4095
sS'birthday'
p725
I278
sS'ones'
p726
I31
sS"he's"
p727
I54
sS'white'
p728
I30
sS'lmao'
p729
I38
sS'r'
p730
I46
sS'any'
p731
I135
sS'playing'
p732
I80
sS'woot'
p733
I38
sS'bought'
p734
I38
sS'20'
p735
I32
sS'come'
p736
I254
sS'good'
p737
I1038
sS'except'
p738
I31
sS'test'
p739
I61
sS'on'
p740
I1284
sS'ok'
p741
I77
sS'of'
p742
I1961
sS'or'
p743
I298
sS'5'
p744
I86
sS'song'
p745
I57
sS'far'
p746
I74
sS'fam'
p747
I32
sS"don't"
p748
I326
sS'might'
p749
I76
sS'his'
p750
I198
sS'hit'
p751
I54
sS'are'
p752
I665
sS'moving'
p753
I36
sS'lovin'
p754
I31
sS'fast'
p755
I38
sS"we're"
p756
I58
sS'called'
p757
I31
sS'homework'
p758
I96
sS'waiting'
p759
I69
sS'heart'
p760
I64
sS'&'
p761
I216
sS'sore'
p762
I40
sS'getting'
p763
I324
sS'something'
p764
I163
sS'status'
p765
I90
sS'looks'
p766
I60
sS'practice'
p767
I58
sS'weather'
p768
I76
sS'='
p769
I104
sS'chicken'
p770
I35
sS'made'
p771
I244
sS'hmm'
p772
I55
sS'will'
p773
I492
sS'english'
p774
I32
sS'now'
p775
I864
sS'other'
p776
I116
sS'know'
p777
I410
sS"i've"
p778
I155
sS'book'
p779
I60
sS'sick'
p780
I234
s.